; Function Attrs: nounwind uwtable
define ptr @l_EStateM_instToStringResult___rarg(ptr noundef %0, ptr noundef %1, ptr noundef %2) #0 {
  %4 = ptrtoint ptr %2 to i64
  %5 = and i64 %4, 1
  %.not.i38 = icmp eq i64 %5, 0
  br i1 %.not.i38, label %9, label %6

6:                                                ; preds = %3
  %7 = lshr i64 %4, 1
  %8 = trunc i64 %7 to i32
  br label %lean_obj_tag.exit

9:                                                ; preds = %3
  %10 = getelementptr i8, ptr %2, i64 4
  %.val.i = load i32, ptr %10, align 4
  %11 = lshr i32 %.val.i, 24
  br label %lean_obj_tag.exit

lean_obj_tag.exit:                                ; preds = %6, %9
  %.0.i = phi i32 [ %8, %6 ], [ %11, %9 ]
  %12 = icmp eq i32 %.0.i, 0
  br i1 %12, label %13, label %52

13:                                               ; preds = %lean_obj_tag.exit
  %14 = ptrtoint ptr %0 to i64
  %15 = and i64 %14, 1
  %.not47 = icmp eq i64 %15, 0
  br i1 %.not47, label %16, label %lean_dec.exit

16:                                               ; preds = %13
  %17 = load i32, ptr %0, align 4, !tbaa !4
  %18 = icmp sgt i32 %17, 1
  br i1 %18, label %19, label %21, !prof !9

19:                                               ; preds = %16
  %20 = add nsw i32 %17, -1
  store i32 %20, ptr %0, align 4, !tbaa !4
  br label %lean_dec.exit

21:                                               ; preds = %16
  %.not.i36 = icmp eq i32 %17, 0
  br i1 %.not.i36, label %lean_dec.exit, label %22

22:                                               ; preds = %21
  tail call void @lean_dec_ref_cold(ptr noundef nonnull %0) #3
  br label %lean_dec.exit

lean_dec.exit:                                    ; preds = %22, %21, %19, %13
  %23 = getelementptr inbounds nuw i8, ptr %2, i64 8
  %24 = load ptr, ptr %23, align 8, !tbaa !10
  %25 = ptrtoint ptr %24 to i64
  %26 = and i64 %25, 1
  %.not48 = icmp eq i64 %26, 0
  br i1 %.not48, label %27, label %lean_inc.exit

27:                                               ; preds = %lean_dec.exit
  %.val.i39 = load i32, ptr %24, align 4, !tbaa !4
  %28 = icmp sgt i32 %.val.i39, 0
  br i1 %28, label %29, label %31, !prof !9

29:                                               ; preds = %27
  %30 = add nuw i32 %.val.i39, 1
  store i32 %30, ptr %24, align 4, !tbaa !4
  br label %lean_inc.exit

31:                                               ; preds = %27
  %.not.i40 = icmp eq i32 %.val.i39, 0
  br i1 %.not.i40, label %lean_inc.exit, label %32

32:                                               ; preds = %31
  tail call void @lean_inc_ref_cold(ptr noundef nonnull %24) #3
  br label %lean_inc.exit

lean_inc.exit:                                    ; preds = %32, %31, %29, %lean_dec.exit
  br i1 %.not.i38, label %33, label %lean_dec.exit22

33:                                               ; preds = %lean_inc.exit
  %34 = load i32, ptr %2, align 4, !tbaa !4
  %35 = icmp sgt i32 %34, 1
  br i1 %35, label %36, label %38, !prof !9

36:                                               ; preds = %33
  %37 = add nsw i32 %34, -1
  store i32 %37, ptr %2, align 4, !tbaa !4
  br label %lean_dec.exit22

38:                                               ; preds = %33
  %.not.i34 = icmp eq i32 %34, 0
  br i1 %.not.i34, label %lean_dec.exit22, label %39

39:                                               ; preds = %38
  tail call void @lean_dec_ref_cold(ptr noundef nonnull %2) #3
  br label %lean_dec.exit22

lean_dec.exit22:                                  ; preds = %39, %38, %36, %lean_inc.exit
  %40 = tail call ptr @lean_apply_1(ptr noundef %1, ptr noundef %24) #3
  %41 = load ptr, ptr @l_EStateM_instToStringResult___rarg___closed__1, align 8, !tbaa !10
  %42 = tail call ptr @lean_string_append(ptr noundef %41, ptr noundef %40) #3
  %43 = ptrtoint ptr %40 to i64
  %44 = and i64 %43, 1
  %.not50 = icmp eq i64 %44, 0
  br i1 %.not50, label %45, label %lean_dec.exit23

45:                                               ; preds = %lean_dec.exit22
  %46 = load i32, ptr %40, align 4, !tbaa !4
  %47 = icmp sgt i32 %46, 1
  br i1 %47, label %48, label %50, !prof !9

48:                                               ; preds = %45
  %49 = add nsw i32 %46, -1
  store i32 %49, ptr %40, align 4, !tbaa !4
  br label %lean_dec.exit23

50:                                               ; preds = %45
  %.not.i32 = icmp eq i32 %46, 0
  br i1 %.not.i32, label %lean_dec.exit23, label %51

51:                                               ; preds = %50
  tail call void @lean_dec_ref_cold(ptr noundef nonnull %40) #3
  br label %lean_dec.exit23

52:                                               ; preds = %lean_obj_tag.exit
  %53 = ptrtoint ptr %1 to i64
  %54 = and i64 %53, 1
  %.not = icmp eq i64 %54, 0
  br i1 %.not, label %55, label %lean_dec.exit24

55:                                               ; preds = %52
  %56 = load i32, ptr %1, align 4, !tbaa !4
  %57 = icmp sgt i32 %56, 1
  br i1 %57, label %58, label %60, !prof !9

58:                                               ; preds = %55
  %59 = add nsw i32 %56, -1
  store i32 %59, ptr %1, align 4, !tbaa !4
  br label %lean_dec.exit24

60:                                               ; preds = %55
  %.not.i30 = icmp eq i32 %56, 0
  br i1 %.not.i30, label %lean_dec.exit24, label %61

61:                                               ; preds = %60
  tail call void @lean_dec_ref_cold(ptr noundef nonnull %1) #3
  br label %lean_dec.exit24

lean_dec.exit24:                                  ; preds = %61, %60, %58, %52
  %62 = getelementptr inbounds nuw i8, ptr %2, i64 8
  %63 = load ptr, ptr %62, align 8, !tbaa !10
  %64 = ptrtoint ptr %63 to i64
  %65 = and i64 %64, 1
  %.not44 = icmp eq i64 %65, 0
  br i1 %.not44, label %66, label %lean_inc.exit27

66:                                               ; preds = %lean_dec.exit24
  %.val.i41 = load i32, ptr %63, align 4, !tbaa !4
  %67 = icmp sgt i32 %.val.i41, 0
  br i1 %67, label %68, label %70, !prof !9

68:                                               ; preds = %66
  %69 = add nuw i32 %.val.i41, 1
  store i32 %69, ptr %63, align 4, !tbaa !4
  br label %lean_inc.exit27

70:                                               ; preds = %66
  %.not.i42 = icmp eq i32 %.val.i41, 0
  br i1 %.not.i42, label %lean_inc.exit27, label %71

71:                                               ; preds = %70
  tail call void @lean_inc_ref_cold(ptr noundef nonnull %63) #3
  br label %lean_inc.exit27

lean_inc.exit27:                                  ; preds = %71, %70, %68, %lean_dec.exit24
  br i1 %.not.i38, label %72, label %lean_dec.exit25

72:                                               ; preds = %lean_inc.exit27
  %73 = load i32, ptr %2, align 4, !tbaa !4
  %74 = icmp sgt i32 %73, 1
  br i1 %74, label %75, label %77, !prof !9

75:                                               ; preds = %72
  %76 = add nsw i32 %73, -1
  store i32 %76, ptr %2, align 4, !tbaa !4
  br label %lean_dec.exit25

77:                                               ; preds = %72
  %.not.i28 = icmp eq i32 %73, 0
  br i1 %.not.i28, label %lean_dec.exit25, label %78

78:                                               ; preds = %77
  tail call void @lean_dec_ref_cold(ptr noundef nonnull %2) #3
  br label %lean_dec.exit25

lean_dec.exit25:                                  ; preds = %78, %77, %75, %lean_inc.exit27
  %79 = tail call ptr @lean_apply_1(ptr noundef %0, ptr noundef %63) #3
  %80 = load ptr, ptr @l_EStateM_instToStringResult___rarg___closed__2, align 8, !tbaa !10
  %81 = tail call ptr @lean_string_append(ptr noundef %80, ptr noundef %79) #3
  %82 = ptrtoint ptr %79 to i64
  %83 = and i64 %82, 1
  %.not46 = icmp eq i64 %83, 0
  br i1 %.not46, label %84, label %lean_dec.exit23

84:                                               ; preds = %lean_dec.exit25
  %85 = load i32, ptr %79, align 4, !tbaa !4
  %86 = icmp sgt i32 %85, 1
  br i1 %86, label %87, label %89, !prof !9

87:                                               ; preds = %84
  %88 = add nsw i32 %85, -1
  store i32 %88, ptr %79, align 4, !tbaa !4
  br label %lean_dec.exit23

89:                                               ; preds = %84
  %.not.i = icmp eq i32 %85, 0
  br i1 %.not.i, label %lean_dec.exit23, label %90

90:                                               ; preds = %89
  tail call void @lean_dec_ref_cold(ptr noundef nonnull %79) #3
  br label %lean_dec.exit23

lean_dec.exit23:                                  ; preds = %lean_dec.exit25, %87, %89, %90, %lean_dec.exit22, %48, %50, %51
  %.0 = phi ptr [ %42, %51 ], [ %42, %50 ], [ %42, %48 ], [ %42, %lean_dec.exit22 ], [ %81, %90 ], [ %81, %89 ], [ %81, %87 ], [ %81, %lean_dec.exit25 ]
  ret ptr %.0
}